target datalayout = "e-m:e-p270:32:32-p271:32:32-p272:64:64-i64:64-i128:128-f80:128-n8:16:32:64-S128"
target triple = "x86_64-pc-linux-gnu"

%struct.IDAMemRec = type { double, ptr, ptr, i32, double, double, ptr, i32, ptr, ptr, i32, ptr, ptr, i32, i32, double, double, ptr, i32, i32, i32, ptr, ptr, i32, ptr, ptr, ptr, i32, double, i32, i32, double, ptr, ptr, i32, ptr, ptr, i32, i32, i32, double, ptr, ptr, [6 x ptr], [6 x double], [6 x double], [6 x double], [6 x double], [6 x double], ptr, ptr, ptr, ptr, ptr, ptr, ptr, ptr, ptr, ptr, ptr, ptr, ptr, ptr, ptr, [6 x ptr], ptr, ptr, ptr, ptr, [6 x ptr], ptr, ptr, ptr, ptr, ptr, ptr, ptr, ptr, ptr, ptr, ptr, ptr, ptr, ptr, [6 x ptr], ptr, ptr, ptr, ptr, ptr, double, ptr, ptr, i32, i32, i32, i32, i32, i32, i32, double, double, double, i32, double, i32, i32, i32, i32, double, double, double, double, double, double, double, double, double, double, double, double, double, double, i32, i32, i32, i32, i32, i64, double, i32, i64, i64, i64, i64, i64, i64, i64, i64, i64, i64, i64, i64, i64, i64, i64, i64, i64, i64, i64, i64, i64, i64, i64, i64, ptr, ptr, ptr, i32, i32, i32, i32, i32, i32, i32, i32, i32, i32, i32, i32, i32, ptr, ptr, ptr, ptr, ptr, ptr, i32, i32, i32, i32, i32, i32, double, double, double, ptr, i32, ptr, ptr, double, double, double, ptr, ptr, ptr, double, double, i32, i32, i64, ptr, i32, i32, ptr, i32 }

@.str = private unnamed_addr constant [5 x i8] c"IDAS\00", align 1
@.str.4 = private unnamed_addr constant [24 x i8] c"ida_mem = NULL illegal.\00", align 1
@.str.30 = private unnamed_addr constant [52 x i8] c"Illegal attempt to call before calling IDASensInit.\00", align 1
@.str.40 = private unnamed_addr constant [73 x i8] c"Forward sensitivity analysis for quadrature variables was not activated.\00", align 1
@.str.74 = private unnamed_addr constant [20 x i8] c"dky = NULL illegal.\00", align 1
@.str.75 = private unnamed_addr constant [21 x i8] c"Illegal value for k.\00", align 1
@.str.85 = private unnamed_addr constant [18 x i8] c"IDAGetQuadSensDky\00", align 1

; Function Attrs: nounwind uwtable
define i32 @IDAGetQuadSensDky(ptr noundef %0, double noundef %1, i32 noundef %2, ptr noundef %3) #0 {
  %5 = alloca i32, align 4
  %6 = alloca ptr, align 8
  %7 = alloca double, align 8
  %8 = alloca i32, align 4
  %9 = alloca ptr, align 8
  %10 = alloca i32, align 4
  %11 = alloca i32, align 4
  %12 = alloca ptr, align 8
  %13 = alloca i32, align 4
  store ptr %0, ptr %6, align 8, !tbaa !91
  store double %1, ptr %7, align 8, !tbaa !92
  store i32 %2, ptr %8, align 4, !tbaa !88
  store ptr %3, ptr %9, align 8, !tbaa !94
  call void @llvm.lifetime.start.p0(i64 4, ptr %10) #8
  call void @llvm.lifetime.start.p0(i64 4, ptr %11) #8
  store i32 0, ptr %11, align 4, !tbaa !88
  call void @llvm.lifetime.start.p0(i64 8, ptr %12) #8
  %14 = load ptr, ptr %6, align 8, !tbaa !91
  %15 = icmp eq ptr %14, null
  br i1 %15, label %16, label %17

16:                                               ; preds = %4
  call void (ptr, i32, ptr, ptr, ptr, ...) @IDAProcessError(ptr noundef null, i32 noundef -20, ptr noundef @.str, ptr noundef @.str.85, ptr noundef @.str.4)
  store i32 -20, ptr %5, align 4
  store i32 1, ptr %13, align 4
  br label %75

17:                                               ; preds = %4
  %18 = load ptr, ptr %6, align 8, !tbaa !91
  store ptr %18, ptr %12, align 8, !tbaa !3
  %19 = load ptr, ptr %12, align 8, !tbaa !3
  %20 = getelementptr inbounds nuw %struct.IDAMemRec, ptr %19, i32 0, i32 18
  %21 = load i32, ptr %20, align 8, !tbaa !53
  %22 = icmp eq i32 %21, 0
  br i1 %22, label %23, label %25

23:                                               ; preds = %17
  %24 = load ptr, ptr %12, align 8, !tbaa !3
  call void (ptr, i32, ptr, ptr, ptr, ...) @IDAProcessError(ptr noundef %24, i32 noundef -40, ptr noundef @.str, ptr noundef @.str.85, ptr noundef @.str.30)
  store i32 -40, ptr %5, align 4
  store i32 1, ptr %13, align 4
  br label %75

25:                                               ; preds = %17
  %26 = load ptr, ptr %12, align 8, !tbaa !3
  %27 = getelementptr inbounds nuw %struct.IDAMemRec, ptr %26, i32 0, i32 34
  %28 = load i32, ptr %27, align 8, !tbaa !65
  %29 = icmp eq i32 %28, 0
  br i1 %29, label %30, label %32

30:                                               ; preds = %25
  %31 = load ptr, ptr %12, align 8, !tbaa !3
  call void (ptr, i32, ptr, ptr, ptr, ...) @IDAProcessError(ptr noundef %31, i32 noundef -50, ptr noundef @.str, ptr noundef @.str.85, ptr noundef @.str.40)
  store i32 -50, ptr %5, align 4
  store i32 1, ptr %13, align 4
  br label %75

32:                                               ; preds = %25
  %33 = load ptr, ptr %9, align 8, !tbaa !94
  %34 = icmp eq ptr %33, null
  br i1 %34, label %35, label %37

35:                                               ; preds = %32
  %36 = load ptr, ptr %12, align 8, !tbaa !3
  call void (ptr, i32, ptr, ptr, ptr, ...) @IDAProcessError(ptr noundef %36, i32 noundef -27, ptr noundef @.str, ptr noundef @.str.85, ptr noundef @.str.74)
  store i32 -27, ptr %5, align 4
  store i32 1, ptr %13, align 4
  br label %75

37:                                               ; preds = %32
  %38 = load i32, ptr %8, align 4, !tbaa !88
  %39 = icmp slt i32 %38, 0
  br i1 %39, label %46, label %40

40:                                               ; preds = %37
  %41 = load i32, ptr %8, align 4, !tbaa !88
  %42 = load ptr, ptr %12, align 8, !tbaa !3
  %43 = getelementptr inbounds nuw %struct.IDAMemRec, ptr %42, i32 0, i32 105
  %44 = load i32, ptr %43, align 8, !tbaa !231
  %45 = icmp sgt i32 %41, %44
  br i1 %45, label %46, label %48

46:                                               ; preds = %40, %37
  %47 = load ptr, ptr %12, align 8, !tbaa !3
  call void (ptr, i32, ptr, ptr, ptr, ...) @IDAProcessError(ptr noundef %47, i32 noundef -25, ptr noundef @.str, ptr noundef @.str.85, ptr noundef @.str.75)
  store i32 -25, ptr %5, align 4
  store i32 1, ptr %13, align 4
  br label %75

48:                                               ; preds = %40
  store i32 0, ptr %10, align 4, !tbaa !88
  br label %49

49:                                               ; preds = %70, %48
  %50 = load i32, ptr %10, align 4, !tbaa !88
  %51 = load ptr, ptr %12, align 8, !tbaa !3
  %52 = getelementptr inbounds nuw %struct.IDAMemRec, ptr %51, i32 0, i32 19
  %53 = load i32, ptr %52, align 4, !tbaa !173
  %54 = icmp slt i32 %50, %53
  br i1 %54, label %55, label %73

55:                                               ; preds = %49
  %56 = load ptr, ptr %6, align 8, !tbaa !91
  %57 = load double, ptr %7, align 8, !tbaa !92
  %58 = load i32, ptr %8, align 4, !tbaa !88
  %59 = load i32, ptr %10, align 4, !tbaa !88
  %60 = load ptr, ptr %9, align 8, !tbaa !94
  %61 = load i32, ptr %10, align 4, !tbaa !88
  %62 = sext i32 %61 to i64
  %63 = getelementptr inbounds ptr, ptr %60, i64 %62
  %64 = load ptr, ptr %63, align 8, !tbaa !93
  %65 = call i32 @IDAGetQuadSensDky1(ptr noundef %56, double noundef %57, i32 noundef %58, i32 noundef %59, ptr noundef %64)
  store i32 %65, ptr %11, align 4, !tbaa !88
  %66 = load i32, ptr %11, align 4, !tbaa !88
  %67 = icmp ne i32 %66, 0
  br i1 %67, label %68, label %69

68:                                               ; preds = %55
  br label %73

69:                                               ; preds = %55
  br label %70

70:                                               ; preds = %69
  %71 = load i32, ptr %10, align 4, !tbaa !88
  %72 = add nsw i32 %71, 1
  store i32 %72, ptr %10, align 4, !tbaa !88
  br label %49, !llvm.loop !279

73:                                               ; preds = %68, %49
  %74 = load i32, ptr %11, align 4, !tbaa !88
  store i32 %74, ptr %5, align 4
  store i32 1, ptr %13, align 4
  br label %75

75:                                               ; preds = %73, %46, %35, %30, %23, %16
  call void @llvm.lifetime.end.p0(i64 8, ptr %12) #8
  call void @llvm.lifetime.end.p0(i64 4, ptr %11) #8
  call void @llvm.lifetime.end.p0(i64 4, ptr %10) #8
  %76 = load i32, ptr %5, align 4
  ret i32 %76
}