; Function Attrs: nounwind uwtable
define range(i32 -50, 1) i32 @IDAGetQuadSensDky(ptr noundef captures(address_is_null) %0, double noundef %1, i32 noundef %2, ptr noundef readonly captures(address_is_null) %3) local_unnamed_addr #0 {
  %5 = icmp eq ptr %0, null
  br i1 %5, label %6, label %7

6:                                                ; preds = %4
  tail call void (ptr, i32, ptr, ptr, ptr, ...) @IDAProcessError(ptr noundef null, i32 noundef -20, ptr noundef nonnull @.str, ptr noundef nonnull @.str.85, ptr noundef nonnull @.str.4)
  br label %.loopexit

7:                                                ; preds = %4
  %8 = getelementptr inbounds nuw i8, ptr %0, i64 136
  %9 = load i32, ptr %8, align 8, !tbaa !37
  %10 = icmp eq i32 %9, 0
  br i1 %10, label %11, label %12

11:                                               ; preds = %7
  tail call void (ptr, i32, ptr, ptr, ptr, ...) @IDAProcessError(ptr noundef nonnull %0, i32 noundef -40, ptr noundef nonnull @.str, ptr noundef nonnull @.str.85, ptr noundef nonnull @.str.30)
  br label %.loopexit

12:                                               ; preds = %7
  %13 = getelementptr inbounds nuw i8, ptr %0, i64 248
  %14 = load i32, ptr %13, align 8, !tbaa !46
  %15 = icmp eq i32 %14, 0
  br i1 %15, label %16, label %17

16:                                               ; preds = %12
  tail call void (ptr, i32, ptr, ptr, ptr, ...) @IDAProcessError(ptr noundef nonnull %0, i32 noundef -50, ptr noundef nonnull @.str, ptr noundef nonnull @.str.85, ptr noundef nonnull @.str.40)
  br label %.loopexit

17:                                               ; preds = %12
  %18 = icmp eq ptr %3, null
  br i1 %18, label %19, label %20

19:                                               ; preds = %17
  tail call void (ptr, i32, ptr, ptr, ptr, ...) @IDAProcessError(ptr noundef nonnull %0, i32 noundef -27, ptr noundef nonnull @.str, ptr noundef nonnull @.str.85, ptr noundef nonnull @.str.74)
  br label %.loopexit

20:                                               ; preds = %17
  %21 = icmp slt i32 %2, 0
  br i1 %21, label %29, label %22

22:                                               ; preds = %20
  %23 = getelementptr inbounds nuw i8, ptr %0, i64 1144
  %24 = load i32, ptr %23, align 8, !tbaa !211
  %25 = icmp sgt i32 %2, %24
  br i1 %25, label %29, label %.preheader

.preheader:                                       ; preds = %22
  %26 = getelementptr inbounds nuw i8, ptr %0, i64 140
  %27 = load i32, ptr %26, align 4, !tbaa !139
  %28 = icmp sgt i32 %27, 0
  br i1 %28, label %.lr.ph, label %.loopexit

29:                                               ; preds = %22, %20
  tail call void (ptr, i32, ptr, ptr, ptr, ...) @IDAProcessError(ptr noundef nonnull %0, i32 noundef -25, ptr noundef nonnull @.str, ptr noundef nonnull @.str.85, ptr noundef nonnull @.str.75)
  br label %.loopexit

30:                                               ; preds = %.lr.ph
  %indvars.iv.next = add nuw nsw i64 %indvars.iv, 1
  %31 = load i32, ptr %26, align 4, !tbaa !139
  %32 = sext i32 %31 to i64
  %33 = icmp slt i64 %indvars.iv.next, %32
  br i1 %33, label %.lr.ph, label %.loopexit, !llvm.loop !324

.lr.ph:                                           ; preds = %.preheader, %30
  %indvars.iv = phi i64 [ %indvars.iv.next, %30 ], [ 0, %.preheader ]
  %34 = getelementptr inbounds nuw ptr, ptr %3, i64 %indvars.iv
  %35 = load ptr, ptr %34, align 8, !tbaa !57
  %36 = trunc nuw nsw i64 %indvars.iv to i32
  %37 = tail call i32 @IDAGetQuadSensDky1(ptr noundef nonnull %0, double noundef %1, i32 noundef %2, i32 noundef %36, ptr noundef %35)
  %.not = icmp eq i32 %37, 0
  br i1 %.not, label %30, label %.loopexit

.loopexit:                                        ; preds = %.lr.ph, %30, %.preheader, %29, %19, %16, %11, %6
  %.0 = phi i32 [ -20, %6 ], [ -40, %11 ], [ -50, %16 ], [ -27, %19 ], [ -25, %29 ], [ 0, %.preheader ], [ %37, %.lr.ph ], [ 0, %30 ]
  ret i32 %.0
}